target datalayout = "e-m:e-p270:32:32-p271:32:32-p272:64:64-i64:64-i128:128-f80:128-n8:16:32:64-S128"
target triple = "x86_64-pc-linux-gnu"

%struct.__va_list_tag = type { i32, i32, ptr, ptr }

@.str.12 = private unnamed_addr constant [32 x i8] c"../openssl/test/property_test.c\00", align 1
@.str.16 = private unnamed_addr constant [2 x i8] c"0\00", align 1
@.str.80 = private unnamed_addr constant [31 x i8] c"ossl_property_name(NULL, n, 1)\00", align 1

; Function Attrs: nounwind uwtable
define internal i32 @add_property_names(ptr noundef %0, ...) #0 {
  %2 = alloca ptr, align 8
  %3 = alloca [1 x %struct.__va_list_tag], align 16
  %4 = alloca i32, align 4
  store ptr %0, ptr %2, align 8, !tbaa !22
  call void @llvm.lifetime.start.p0(i64 24, ptr %3) #6
  call void @llvm.lifetime.start.p0(i64 4, ptr %4) #6
  store i32 1, ptr %4, align 4, !tbaa !9
  %5 = getelementptr inbounds [1 x %struct.__va_list_tag], ptr %3, i64 0, i64 0
  call void @llvm.va_start.p0(ptr %5)
  br label %6

6:                                                ; preds = %27, %1
  %7 = load ptr, ptr %2, align 8, !tbaa !22
  %8 = call i32 @ossl_property_name(ptr noundef null, ptr noundef %7, i32 noundef 1)
  %9 = call i32 @test_int_ne(ptr noundef @.str.12, i32 noundef 35, ptr noundef @.str.80, ptr noundef @.str.16, i32 noundef %8, i32 noundef 0)
  %10 = icmp ne i32 %9, 0
  br i1 %10, label %12, label %11

11:                                               ; preds = %6
  store i32 0, ptr %4, align 4, !tbaa !9
  br label %12

12:                                               ; preds = %11, %6
  br label %13

13:                                               ; preds = %12
  %14 = getelementptr inbounds [1 x %struct.__va_list_tag], ptr %3, i64 0, i64 0
  %15 = getelementptr inbounds nuw %struct.__va_list_tag, ptr %14, i32 0, i32 0
  %16 = load i32, ptr %15, align 16
  %17 = icmp ule i32 %16, 40
  br i1 %17, label %18, label %23

18:                                               ; preds = %13
  %19 = getelementptr inbounds nuw %struct.__va_list_tag, ptr %14, i32 0, i32 3
  %20 = load ptr, ptr %19, align 16
  %21 = getelementptr i8, ptr %20, i32 %16
  %22 = add i32 %16, 8
  store i32 %22, ptr %15, align 16
  br label %27

23:                                               ; preds = %13
  %24 = getelementptr inbounds nuw %struct.__va_list_tag, ptr %14, i32 0, i32 2
  %25 = load ptr, ptr %24, align 8
  %26 = getelementptr i8, ptr %25, i32 8
  store ptr %26, ptr %24, align 8
  br label %27

27:                                               ; preds = %23, %18
  %28 = phi ptr [ %21, %18 ], [ %25, %23 ]
  %29 = load ptr, ptr %28, align 8, !tbaa !22
  store ptr %29, ptr %2, align 8, !tbaa !22
  %30 = icmp ne ptr %29, null
  br i1 %30, label %6, label %31, !llvm.loop !55

31:                                               ; preds = %27
  %32 = getelementptr inbounds [1 x %struct.__va_list_tag], ptr %3, i64 0, i64 0
  call void @llvm.va_end.p0(ptr %32)
  %33 = load i32, ptr %4, align 4, !tbaa !9
  call void @llvm.lifetime.end.p0(i64 4, ptr %4) #6
  call void @llvm.lifetime.end.p0(i64 24, ptr %3) #6
  ret i32 %33
}