; Function Attrs: nounwind uwtable
define internal range(i32 0, 2) i32 @add_property_names(ptr noundef %0, ...) unnamed_addr #0 {
  %2 = alloca [1 x %struct.__va_list_tag], align 16
  call void @llvm.lifetime.start.p0(i64 24, ptr nonnull %2) #6
  call void @llvm.va_start.p0(ptr nonnull %2)
  %3 = getelementptr inbounds nuw i8, ptr %2, i64 8
  %4 = getelementptr inbounds nuw i8, ptr %2, i64 16
  br label %5

5:                                                ; preds = %18, %1
  %.01 = phi ptr [ %0, %1 ], [ %20, %18 ]
  %.0 = phi i32 [ 1, %1 ], [ %spec.select, %18 ]
  %6 = call i32 @ossl_property_name(ptr noundef null, ptr noundef %.01, i32 noundef 1) #6
  %7 = call i32 @test_int_ne(ptr noundef nonnull @.str.12, i32 noundef 35, ptr noundef nonnull @.str.80, ptr noundef nonnull @.str.16, i32 noundef %6, i32 noundef 0) #6
  %.not = icmp eq i32 %7, 0
  %spec.select = select i1 %.not, i32 0, i32 %.0
  %8 = load i32, ptr %2, align 16
  %9 = icmp ult i32 %8, 41
  br i1 %9, label %10, label %15

10:                                               ; preds = %5
  %11 = load ptr, ptr %4, align 16
  %12 = zext nneg i32 %8 to i64
  %13 = getelementptr i8, ptr %11, i64 %12
  %14 = add nuw nsw i32 %8, 8
  store i32 %14, ptr %2, align 16
  br label %18

15:                                               ; preds = %5
  %16 = load ptr, ptr %3, align 8
  %17 = getelementptr i8, ptr %16, i64 8
  store ptr %17, ptr %3, align 8
  br label %18

18:                                               ; preds = %15, %10
  %19 = phi ptr [ %13, %10 ], [ %16, %15 ]
  %20 = load ptr, ptr %19, align 8, !tbaa !47
  %.not4 = icmp eq ptr %20, null
  br i1 %.not4, label %21, label %5, !llvm.loop !48

21:                                               ; preds = %18
  call void @llvm.va_end.p0(ptr nonnull %2)
  call void @llvm.lifetime.end.p0(i64 24, ptr nonnull %2) #6
  ret i32 %spec.select
}